; Function Attrs: mustprogress nofree norecurse nosync nounwind willreturn memory(read, inaccessiblemem: none) uwtable
define dso_local noundef i32 @_ZNK17DistributionTable11key_to_probEi(ptr nocapture noundef nonnull readonly align 8 dereferenceable(56) %0, i32 noundef %1) local_unnamed_addr #13 align 2 {
  %3 = getelementptr inbounds i8, ptr %0, i64 8
  %4 = getelementptr inbounds i8, ptr %0, i64 16
  %5 = load ptr, ptr %4, align 8
  %6 = load ptr, ptr %3, align 8
  %.not = icmp eq ptr %5, %6
  br i1 %.not, label %.loopexit, label %.lr.ph.preheader

.lr.ph.preheader:                                 ; preds = %2
  %7 = ptrtoint ptr %5 to i64
  %8 = ptrtoint ptr %6 to i64
  %9 = sub i64 %7, %8
  %10 = ashr exact i64 %9, 2
  %umax = tail call i64 @llvm.umax.i64(i64 %10, i64 1)
  br label %.lr.ph

.lr.ph:                                           ; preds = %.lr.ph.preheader, %19
  %.08 = phi i64 [ %20, %19 ], [ 0, %.lr.ph.preheader ]
  %11 = getelementptr inbounds i32, ptr %6, i64 %.08
  %12 = load i32, ptr %11, align 4
  %13 = icmp eq i32 %12, %1
  br i1 %13, label %14, label %19

14:                                               ; preds = %.lr.ph
  %15 = getelementptr inbounds i8, ptr %0, i64 32
  %16 = load ptr, ptr %15, align 8
  %17 = getelementptr inbounds i32, ptr %16, i64 %.08
  %18 = load i32, ptr %17, align 4
  br label %.loopexit

19:                                               ; preds = %.lr.ph
  %20 = add nuw i64 %.08, 1
  %exitcond.not = icmp eq i64 %20, %umax
  br i1 %exitcond.not, label %.loopexit, label %.lr.ph, !llvm.loop !45

.loopexit:                                        ; preds = %19, %2, %14
  %.06 = phi i32 [ %18, %14 ], [ 0, %2 ], [ 0, %19 ]
  ret i32 %.06
}